; ModuleID = '33/2260.c'
source_filename = "33/2260.c"
target datalayout = "e-m:e-p270:32:32-p271:32:32-p272:64:64-i64:64-f80:128-n8:16:32:64-S128"
target triple = "x86_64-pc-linux-gnu"

@.str = private unnamed_addr constant [3 x i8] c"%d\00", align 1
@.str.1 = private unnamed_addr constant [3 x i8] c"%s\00", align 1
@.str.2 = private unnamed_addr constant [4 x i8] c"%s\0A\00", align 1

; Function Attrs: noinline nounwind uwtable
define dso_local i32 @main() #0 {
  %1 = alloca i32, align 4
  %2 = alloca i32, align 4
  %3 = alloca i32, align 4
  %4 = alloca i32, align 4
  %5 = alloca i32, align 4
  %6 = alloca i32, align 4
  %7 = alloca [1000 x [256 x i8]], align 16
  %8 = alloca [1000 x [256 x i8]], align 16
  %9 = alloca [1000 x i32], align 16
  store i32 0, i32* %1, align 4
  %10 = bitcast [1000 x [256 x i8]]* %8 to i8*
  call void @llvm.memset.p0i8.i64(i8* align 16 %10, i8 0, i64 256000, i1 false)
  %11 = call i32 (i8*, ...) @__isoc99_scanf(i8* getelementptr inbounds ([3 x i8], [3 x i8]* @.str, i64 0, i64 0), i32* %3)
  store i32 0, i32* %5, align 4
  br label %12

12:                                               ; preds = %21, %0
  %13 = load i32, i32* %5, align 4
  %14 = load i32, i32* %3, align 4
  %15 = icmp slt i32 %13, %14
  br i1 %15, label %16, label %24

16:                                               ; preds = %12
  %17 = load i32, i32* %5, align 4
  %18 = sext i32 %17 to i64
  %19 = getelementptr inbounds [1000 x [256 x i8]], [1000 x [256 x i8]]* %7, i64 0, i64 %18
  %20 = call i32 (i8*, ...) @__isoc99_scanf(i8* getelementptr inbounds ([3 x i8], [3 x i8]* @.str.1, i64 0, i64 0), [256 x i8]* %19)
  br label %21

21:                                               ; preds = %16
  %22 = load i32, i32* %5, align 4
  %23 = add nsw i32 %22, 1
  store i32 %23, i32* %5, align 4
  br label %12

24:                                               ; preds = %12
  store i32 0, i32* %5, align 4
  br label %25

25:                                               ; preds = %39, %24
  %26 = load i32, i32* %5, align 4
  %27 = load i32, i32* %3, align 4
  %28 = icmp slt i32 %26, %27
  br i1 %28, label %29, label %42

29:                                               ; preds = %25
  %30 = load i32, i32* %5, align 4
  %31 = sext i32 %30 to i64
  %32 = getelementptr inbounds [1000 x [256 x i8]], [1000 x [256 x i8]]* %7, i64 0, i64 %31
  %33 = getelementptr inbounds [256 x i8], [256 x i8]* %32, i64 0, i64 0
  %34 = call i64 @strlen(i8* %33) #4
  %35 = trunc i64 %34 to i32
  %36 = load i32, i32* %5, align 4
  %37 = sext i32 %36 to i64
  %38 = getelementptr inbounds [1000 x i32], [1000 x i32]* %9, i64 0, i64 %37
  store i32 %35, i32* %38, align 4
  br label %39

39:                                               ; preds = %29
  %40 = load i32, i32* %5, align 4
  %41 = add nsw i32 %40, 1
  store i32 %41, i32* %5, align 4
  br label %25

42:                                               ; preds = %25
  store i32 0, i32* %5, align 4
  br label %43

43:                                               ; preds = %145, %42
  %44 = load i32, i32* %5, align 4
  %45 = load i32, i32* %3, align 4
  %46 = icmp slt i32 %44, %45
  br i1 %46, label %47, label %148

47:                                               ; preds = %43
  store i32 0, i32* %2, align 4
  br label %48

48:                                               ; preds = %141, %47
  %49 = load i32, i32* %2, align 4
  %50 = load i32, i32* %5, align 4
  %51 = sext i32 %50 to i64
  %52 = getelementptr inbounds [1000 x i32], [1000 x i32]* %9, i64 0, i64 %51
  %53 = load i32, i32* %52, align 4
  %54 = icmp slt i32 %49, %53
  br i1 %54, label %55, label %144

55:                                               ; preds = %48
  %56 = load i32, i32* %5, align 4
  %57 = sext i32 %56 to i64
  %58 = getelementptr inbounds [1000 x [256 x i8]], [1000 x [256 x i8]]* %7, i64 0, i64 %57
  %59 = load i32, i32* %2, align 4
  %60 = sext i32 %59 to i64
  %61 = getelementptr inbounds [256 x i8], [256 x i8]* %58, i64 0, i64 %60
  %62 = load i8, i8* %61, align 1
  %63 = sext i8 %62 to i32
  %64 = icmp eq i32 %63, 65
  br i1 %64, label %65, label %72

65:                                               ; preds = %55
  %66 = load i32, i32* %5, align 4
  %67 = sext i32 %66 to i64
  %68 = getelementptr inbounds [1000 x [256 x i8]], [1000 x [256 x i8]]* %8, i64 0, i64 %67
  %69 = load i32, i32* %2, align 4
  %70 = sext i32 %69 to i64
  %71 = getelementptr inbounds [256 x i8], [256 x i8]* %68, i64 0, i64 %70
  store i8 84, i8* %71, align 1
  br label %72

72:                                               ; preds = %65, %55
  %73 = load i32, i32* %5, align 4
  %74 = sext i32 %73 to i64
  %75 = getelementptr inbounds [1000 x [256 x i8]], [1000 x [256 x i8]]* %7, i64 0, i64 %74
  %76 = load i32, i32* %2, align 4
  %77 = sext i32 %76 to i64
  %78 = getelementptr inbounds [256 x i8], [256 x i8]* %75, i64 0, i64 %77
  %79 = load i8, i8* %78, align 1
  %80 = sext i8 %79 to i32
  %81 = icmp eq i32 %80, 84
  br i1 %81, label %82, label %89

82:                                               ; preds = %72
  %83 = load i32, i32* %5, align 4
  %84 = sext i32 %83 to i64
  %85 = getelementptr inbounds [1000 x [256 x i8]], [1000 x [256 x i8]]* %8, i64 0, i64 %84
  %86 = load i32, i32* %2, align 4
  %87 = sext i32 %86 to i64
  %88 = getelementptr inbounds [256 x i8], [256 x i8]* %85, i64 0, i64 %87
  store i8 65, i8* %88, align 1
  br label %89

89:                                               ; preds = %82, %72
  %90 = load i32, i32* %5, align 4
  %91 = sext i32 %90 to i64
  %92 = getelementptr inbounds [1000 x [256 x i8]], [1000 x [256 x i8]]* %7, i64 0, i64 %91
  %93 = load i32, i32* %2, align 4
  %94 = sext i32 %93 to i64
  %95 = getelementptr inbounds [256 x i8], [256 x i8]* %92, i64 0, i64 %94
  %96 = load i8, i8* %95, align 1
  %97 = sext i8 %96 to i32
  %98 = icmp eq i32 %97, 71
  br i1 %98, label %99, label %106

99:                                               ; preds = %89
  %100 = load i32, i32* %5, align 4
  %101 = sext i32 %100 to i64
  %102 = getelementptr inbounds [1000 x [256 x i8]], [1000 x [256 x i8]]* %8, i64 0, i64 %101
  %103 = load i32, i32* %2, align 4
  %104 = sext i32 %103 to i64
  %105 = getelementptr inbounds [256 x i8], [256 x i8]* %102, i64 0, i64 %104
  store i8 67, i8* %105, align 1
  br label %106

106:                                              ; preds = %99, %89
  %107 = load i32, i32* %5, align 4
  %108 = sext i32 %107 to i64
  %109 = getelementptr inbounds [1000 x [256 x i8]], [1000 x [256 x i8]]* %7, i64 0, i64 %108
  %110 = load i32, i32* %2, align 4
  %111 = sext i32 %110 to i64
  %112 = getelementptr inbounds [256 x i8], [256 x i8]* %109, i64 0, i64 %111
  %113 = load i8, i8* %112, align 1
  %114 = sext i8 %113 to i32
  %115 = icmp eq i32 %114, 67
  br i1 %115, label %116, label %123

116:                                              ; preds = %106
  %117 = load i32, i32* %5, align 4
  %118 = sext i32 %117 to i64
  %119 = getelementptr inbounds [1000 x [256 x i8]], [1000 x [256 x i8]]* %8, i64 0, i64 %118
  %120 = load i32, i32* %2, align 4
  %121 = sext i32 %120 to i64
  %122 = getelementptr inbounds [256 x i8], [256 x i8]* %119, i64 0, i64 %121
  store i8 71, i8* %122, align 1
  br label %123

123:                                              ; preds = %116, %106
  %124 = load i32, i32* %5, align 4
  %125 = sext i32 %124 to i64
  %126 = getelementptr inbounds [1000 x [256 x i8]], [1000 x [256 x i8]]* %7, i64 0, i64 %125
  %127 = load i32, i32* %2, align 4
  %128 = sext i32 %127 to i64
  %129 = getelementptr inbounds [256 x i8], [256 x i8]* %126, i64 0, i64 %128
  %130 = load i8, i8* %129, align 1
  %131 = sext i8 %130 to i32
  %132 = icmp eq i32 %131, 0
  br i1 %132, label %133, label %140

133:                                              ; preds = %123
  %134 = load i32, i32* %5, align 4
  %135 = sext i32 %134 to i64
  %136 = getelementptr inbounds [1000 x [256 x i8]], [1000 x [256 x i8]]* %8, i64 0, i64 %135
  %137 = load i32, i32* %2, align 4
  %138 = sext i32 %137 to i64
  %139 = getelementptr inbounds [256 x i8], [256 x i8]* %136, i64 0, i64 %138
  store i8 0, i8* %139, align 1
  br label %140

140:                                              ; preds = %133, %123
  br label %141

141:                                              ; preds = %140
  %142 = load i32, i32* %2, align 4
  %143 = add nsw i32 %142, 1
  store i32 %143, i32* %2, align 4
  br label %48

144:                                              ; preds = %48
  br label %145

145:                                              ; preds = %144
  %146 = load i32, i32* %5, align 4
  %147 = add nsw i32 %146, 1
  store i32 %147, i32* %5, align 4
  br label %43

148:                                              ; preds = %43
  store i32 0, i32* %5, align 4
  br label %149

149:                                              ; preds = %159, %148
  %150 = load i32, i32* %5, align 4
  %151 = load i32, i32* %3, align 4
  %152 = icmp slt i32 %150, %151
  br i1 %152, label %153, label %162

153:                                              ; preds = %149
  %154 = load i32, i32* %5, align 4
  %155 = sext i32 %154 to i64
  %156 = getelementptr inbounds [1000 x [256 x i8]], [1000 x [256 x i8]]* %8, i64 0, i64 %155
  %157 = getelementptr inbounds [256 x i8], [256 x i8]* %156, i64 0, i64 0
  %158 = call i32 (i8*, ...) @printf(i8* getelementptr inbounds ([4 x i8], [4 x i8]* @.str.2, i64 0, i64 0), i8* %157)
  br label %159

159:                                              ; preds = %153
  %160 = load i32, i32* %5, align 4
  %161 = add nsw i32 %160, 1
  store i32 %161, i32* %5, align 4
  br label %149

162:                                              ; preds = %149
  ret i32 0
}

; Function Attrs: argmemonly nounwind willreturn
declare void @llvm.memset.p0i8.i64(i8* nocapture writeonly, i8, i64, i1 immarg) #1

declare dso_local i32 @__isoc99_scanf(i8*, ...) #2

; Function Attrs: nounwind readonly
declare dso_local i64 @strlen(i8*) #3

declare dso_local i32 @printf(i8*, ...) #2


!llvm.module.flags = !{!0}
!llvm.ident = !{!1}

!0 = !{i32 1, !"wchar_size", i32 4}
!1 = !{!"clang version 10.0.0-4ubuntu1 "}
